(dp1
S'outcome_num_crimes_61days_ALL'
p2
(dp3
S'model_type'
p4
S'zero'
p5
ssS'outcome_num_crimes_91days_ALL'
p6
(dp7
g4
g5
ssS'outcome_num_crimes_30days_BURGLARY'
p8
(dp9
g4
g5
ssS'outcome_num_crimes_91days_STREET CRIMES'
p10
(dp11
g4
g5
ssS'outcome_num_crimes_61days_STREET CRIMES'
p12
(dp13
g4
g5
ssS'outcome_num_crimes_91days_MOTOR VEHICLE THEFT'
p14
(dp15
g4
g5
ssS'outcome_num_crimes_14days_STREET CRIMES'
p16
(dp17
g4
g5
ssS'outcome_num_crimes_7days_MOTOR VEHICLE THEFT'
p18
(dp19
g4
g5
ssS'outcome_num_crimes_7days_BURGLARY'
p20
(dp21
g4
g5
ssS'outcome_num_crimes_14days_MOTOR VEHICLE THEFT'
p22
(dp23
g4
g5
ssS'outcome_num_crimes_7days_STREET CRIMES'
p24
(dp25
g4
g5
ssS'outcome_num_crimes_30days_MOTOR VEHICLE THEFT'
p26
(dp27
g4
g5
ssS'outcome_num_crimes_61days_MOTOR VEHICLE THEFT'
p28
(dp29
g4
g5
ssS'outcome_num_crimes_14days_BURGLARY'
p30
(dp31
g4
g5
ssS'outcome_num_crimes_91days_BURGLARY'
p32
(dp33
g4
g5
ssS'outcome_num_crimes_7days_ALL'
p34
(dp35
g4
g5
ssS'outcome_num_crimes_14days_ALL'
p36
(dp37
g4
g5
ssS'outcome_num_crimes_30days_STREET CRIMES'
p38
(dp39
g4
g5
ssS'outcome_num_crimes_61days_BURGLARY'
p40
(dp41
g4
g5
ssS'outcome_num_crimes_30days_ALL'
p42
(dp43
g4
g5
ss.